target datalayout = "e-m:e-p270:32:32-p271:32:32-p272:64:64-i64:64-i128:128-f80:128-n8:16:32:64-S128"
target triple = "x86_64-pc-linux-gnu"

%"class.icu_77::UVector64" = type { %"class.icu_77::UObject", i32, i32, i32, ptr }
%"class.icu_77::UObject" = type { ptr }

@_ZTVN6icu_779UVector64E = unnamed_addr constant { [5 x ptr] } { [5 x ptr] [ptr null, ptr @_ZTIN6icu_779UVector64E, ptr @_ZN6icu_779UVector64D1Ev, ptr @_ZN6icu_779UVector64D0Ev, ptr @_ZNK6icu_779UVector6417getDynamicClassIDEv] }, align 8

; Function Attrs: mustprogress nounwind uwtable
define void @_ZN6icu_779UVector64D2Ev(ptr noundef nonnull align 8 dereferenceable(32) %0) unnamed_addr #0 align 2 personality ptr @__gxx_personality_v0 {
  %2 = alloca ptr, align 8
  store ptr %0, ptr %2, align 8, !tbaa !3
  %3 = load ptr, ptr %2, align 8
  store ptr getelementptr inbounds inrange(-16, 24) ({ [5 x ptr] }, ptr @_ZTVN6icu_779UVector64E, i32 0, i32 0, i32 2), ptr %3, align 8, !tbaa !9
  %4 = getelementptr inbounds nuw %"class.icu_77::UVector64", ptr %3, i32 0, i32 4
  %5 = load ptr, ptr %4, align 8, !tbaa !18
  invoke void @uprv_free_77(ptr noundef %5)
          to label %6 unwind label %8

6:                                                ; preds = %1
  %7 = getelementptr inbounds nuw %"class.icu_77::UVector64", ptr %3, i32 0, i32 4
  store ptr null, ptr %7, align 8, !tbaa !18
  call void @_ZN6icu_777UObjectD2Ev(ptr noundef nonnull align 8 dereferenceable(8) %3) #10
  ret void

8:                                                ; preds = %1
  %9 = landingpad { ptr, i32 }
          catch ptr null
  %10 = extractvalue { ptr, i32 } %9, 0
  call void @__clang_call_terminate(ptr %10) #12
  unreachable
}